target datalayout = "e-m:e-p270:32:32-p271:32:32-p272:64:64-i64:64-i128:128-f80:128-n8:16:32:64-S128"
target triple = "x86_64-pc-linux-gnu"

%"class.icu_77::MaybeStackArray" = type <{ ptr, i32, i8, [40 x i8], [3 x i8] }>
%"class.icu_77::CharString" = type { %"class.icu_77::MaybeStackArray", i32, [4 x i8] }

; Function Attrs: mustprogress nounwind uwtable
define weak_odr noundef nonnull align 1 dereferenceable(1) ptr @_ZN6icu_7715MaybeStackArrayIcLi40EEixEl(ptr noundef nonnull align 8 dereferenceable(53) %0, i64 noundef %1) #0 comdat align 2 {
  %3 = alloca ptr, align 8
  %4 = alloca i64, align 8
  store ptr %0, ptr %3, align 8, !tbaa !3
  store i64 %1, ptr %4, align 8, !tbaa !18
  %5 = load ptr, ptr %3, align 8
  %6 = getelementptr inbounds nuw %"class.icu_77::MaybeStackArray", ptr %5, i32 0, i32 0
  %7 = load ptr, ptr %6, align 8, !tbaa !8
  %8 = load i64, ptr %4, align 8, !tbaa !18
  %9 = getelementptr inbounds i8, ptr %7, i64 %8
  ret ptr %9
}

; Function Attrs: mustprogress uwtable
define noundef nonnull align 8 dereferenceable(60) ptr @_ZN6icu_7710CharString6appendEcR10UErrorCode(ptr noundef nonnull align 8 dereferenceable(60) %0, i8 noundef signext %1, ptr noundef nonnull align 4 dereferenceable(4) %2) #1 align 2 {
  %4 = alloca ptr, align 8
  %5 = alloca i8, align 1
  %6 = alloca ptr, align 8
  store ptr %0, ptr %4, align 8, !tbaa !23
  store i8 %1, ptr %5, align 1, !tbaa !27
  store ptr %2, ptr %6, align 8, !tbaa !22
  %7 = load ptr, ptr %4, align 8
  %8 = getelementptr inbounds nuw %"class.icu_77::CharString", ptr %7, i32 0, i32 1
  %9 = load i32, ptr %8, align 8, !tbaa !25
  %10 = add nsw i32 %9, 2
  %11 = load ptr, ptr %6, align 8, !tbaa !22
  %12 = call noundef signext i8 @_ZN6icu_7710CharString14ensureCapacityEiiR10UErrorCode(ptr noundef nonnull align 8 dereferenceable(60) %7, i32 noundef %10, i32 noundef 0, ptr noundef nonnull align 4 dereferenceable(4) %11)
  %13 = icmp ne i8 %12, 0
  br i1 %13, label %14, label %27

14:                                               ; preds = %3
  %15 = load i8, ptr %5, align 1, !tbaa !27
  %16 = getelementptr inbounds nuw %"class.icu_77::CharString", ptr %7, i32 0, i32 0
  %17 = getelementptr inbounds nuw %"class.icu_77::CharString", ptr %7, i32 0, i32 1
  %18 = load i32, ptr %17, align 8, !tbaa !25
  %19 = add nsw i32 %18, 1
  store i32 %19, ptr %17, align 8, !tbaa !25
  %20 = sext i32 %18 to i64
  %21 = call noundef nonnull align 1 dereferenceable(1) ptr @_ZN6icu_7715MaybeStackArrayIcLi40EEixEl(ptr noundef nonnull align 8 dereferenceable(53) %16, i64 noundef %20)
  store i8 %15, ptr %21, align 1, !tbaa !27
  %22 = getelementptr inbounds nuw %"class.icu_77::CharString", ptr %7, i32 0, i32 0
  %23 = getelementptr inbounds nuw %"class.icu_77::CharString", ptr %7, i32 0, i32 1
  %24 = load i32, ptr %23, align 8, !tbaa !25
  %25 = sext i32 %24 to i64
  %26 = call noundef nonnull align 1 dereferenceable(1) ptr @_ZN6icu_7715MaybeStackArrayIcLi40EEixEl(ptr noundef nonnull align 8 dereferenceable(53) %22, i64 noundef %25)
  store i8 0, ptr %26, align 1, !tbaa !27
  br label %27

27:                                               ; preds = %14, %3
  ret ptr %7
}