; Function Attrs: mustprogress uwtable
define noundef nonnull align 8 dereferenceable(60) ptr @_ZN6icu_7710CharString6appendEcR10UErrorCode(ptr noundef nonnull returned align 8 dereferenceable(60) %0, i8 noundef signext %1, ptr noundef nonnull align 4 captures(none) dereferenceable(4) %2) local_unnamed_addr #1 align 2 {
  %4 = getelementptr inbounds nuw i8, ptr %0, i64 56
  %5 = load i32, ptr %4, align 8, !tbaa !15
  %6 = add nsw i32 %5, 2
  %7 = tail call noundef signext i8 @_ZN6icu_7710CharString14ensureCapacityEiiR10UErrorCode(ptr noundef nonnull align 8 dereferenceable(60) %0, i32 noundef %6, i32 noundef 0, ptr noundef nonnull align 4 dereferenceable(4) %2)
  %.not = icmp eq i8 %7, 0
  br i1 %.not, label %18, label %8

8:                                                ; preds = %3
  %9 = load i32, ptr %4, align 8, !tbaa !15
  %10 = add nsw i32 %9, 1
  store i32 %10, ptr %4, align 8, !tbaa !15
  %11 = sext i32 %9 to i64
  %12 = load ptr, ptr %0, align 8, !tbaa !3
  %13 = getelementptr inbounds i8, ptr %12, i64 %11
  store i8 %1, ptr %13, align 1, !tbaa !17
  %14 = load i32, ptr %4, align 8, !tbaa !15
  %15 = sext i32 %14 to i64
  %16 = load ptr, ptr %0, align 8, !tbaa !3
  %17 = getelementptr inbounds i8, ptr %16, i64 %15
  store i8 0, ptr %17, align 1, !tbaa !17
  br label %18

18:                                               ; preds = %8, %3
  ret ptr %0
}